; Function Attrs: mustprogress uwtable
define dso_local void @_ZN11conformance18JspbEncodingConfig9MergeFromERKN6google8protobuf7MessageE(ptr noundef nonnull align 8 dereferenceable(24) %this, ptr noundef nonnull align 8 dereferenceable(16) %from) unnamed_addr #3 align 2 personality ptr @__gxx_personality_v0 {
entry:
  %0 = tail call ptr @__dynamic_cast(ptr nonnull %from, ptr nonnull @_ZTIN6google8protobuf7MessageE, ptr nonnull @_ZTIN11conformance18JspbEncodingConfigE, i64 0) #21
  %cmp8 = icmp eq ptr %0, null
  br i1 %cmp8, label %if.then, label %if.else

if.then:                                          ; preds = %entry
  tail call void @_ZN6google8protobuf8internal13ReflectionOps5MergeERKNS0_7MessageEPS3_(ptr noundef nonnull align 8 dereferenceable(16) %from, ptr noundef nonnull %this)
  br label %if.end

if.else:                                          ; preds = %entry
  tail call void @_ZN11conformance18JspbEncodingConfig9MergeFromERKS0_(ptr noundef nonnull align 8 dereferenceable(24) %this, ptr noundef nonnull align 8 dereferenceable(24) %0)
  br label %if.end

if.end:                                           ; preds = %if.else, %if.then
  ret void
}